; ModuleID = '22/1076.c'
source_filename = "22/1076.c"
target datalayout = "e-m:e-p270:32:32-p271:32:32-p272:64:64-i64:64-f80:128-n8:16:32:64-S128"
target triple = "x86_64-pc-linux-gnu"

@num = dso_local global [10000 x i32] zeroinitializer, align 16
@.str = private unnamed_addr constant [3 x i8] c"%s\00", align 1
@s = common dso_local global [3000 x i8] zeroinitializer, align 16
@.str.1 = private unnamed_addr constant [3 x i8] c"%d\00", align 1
@.str.2 = private unnamed_addr constant [3 x i8] c"No\00", align 1

; Function Attrs: noinline nounwind uwtable
define dso_local i32 @main() #0 {
  %1 = alloca i32, align 4
  %2 = alloca i32, align 4
  %3 = alloca i32, align 4
  %4 = alloca i32, align 4
  %5 = alloca i8, align 1
  %6 = alloca i32, align 4
  store i32 0, i32* %1, align 4
  store i32 0, i32* %3, align 4
  store i32 0, i32* %4, align 4
  %7 = call i32 (i8*, ...) @__isoc99_scanf(i8* getelementptr inbounds ([3 x i8], [3 x i8]* @.str, i64 0, i64 0), i8* getelementptr inbounds ([3000 x i8], [3000 x i8]* @s, i64 0, i64 0))
  store i32 0, i32* %2, align 4
  br label %8

8:                                                ; preds = %59, %0
  %9 = load i32, i32* %2, align 4
  %10 = sext i32 %9 to i64
  %11 = call i64 @strlen(i8* getelementptr inbounds ([3000 x i8], [3000 x i8]* @s, i64 0, i64 0)) #3
  %12 = icmp ult i64 %10, %11
  br i1 %12, label %13, label %62

13:                                               ; preds = %8
  %14 = load i32, i32* %2, align 4
  %15 = sext i32 %14 to i64
  %16 = getelementptr inbounds [3000 x i8], [3000 x i8]* @s, i64 0, i64 %15
  %17 = load i8, i8* %16, align 1
  %18 = sext i8 %17 to i32
  %19 = icmp sge i32 %18, 48
  br i1 %19, label %20, label %37

20:                                               ; preds = %13
  %21 = load i32, i32* %2, align 4
  %22 = sext i32 %21 to i64
  %23 = getelementptr inbounds [3000 x i8], [3000 x i8]* @s, i64 0, i64 %22
  %24 = load i8, i8* %23, align 1
  %25 = sext i8 %24 to i32
  %26 = icmp sle i32 %25, 57
  br i1 %26, label %27, label %37

27:                                               ; preds = %20
  %28 = load i32, i32* %4, align 4
  %29 = mul nsw i32 %28, 10
  %30 = load i32, i32* %2, align 4
  %31 = sext i32 %30 to i64
  %32 = getelementptr inbounds [3000 x i8], [3000 x i8]* @s, i64 0, i64 %31
  %33 = load i8, i8* %32, align 1
  %34 = sext i8 %33 to i32
  %35 = add nsw i32 %29, %34
  %36 = sub nsw i32 %35, 48
  store i32 %36, i32* %4, align 4
  br label %43

37:                                               ; preds = %20, %13
  %38 = load i32, i32* %4, align 4
  %39 = sext i32 %38 to i64
  %40 = getelementptr inbounds [10000 x i32], [10000 x i32]* @num, i64 0, i64 %39
  %41 = load i32, i32* %40, align 4
  %42 = add nsw i32 %41, 1
  store i32 %42, i32* %40, align 4
  store i32 0, i32* %4, align 4
  br label %43

43:                                               ; preds = %37, %27
  %44 = load i32, i32* %2, align 4
  %45 = sext i32 %44 to i64
  %46 = call i64 @strlen(i8* getelementptr inbounds ([3000 x i8], [3000 x i8]* @s, i64 0, i64 0)) #3
  %47 = sub i64 %46, 1
  %48 = icmp eq i64 %45, %47
  br i1 %48, label %49, label %58

49:                                               ; preds = %43
  %50 = load i32, i32* %4, align 4
  %51 = icmp ne i32 %50, 0
  br i1 %51, label %52, label %58

52:                                               ; preds = %49
  %53 = load i32, i32* %4, align 4
  %54 = sext i32 %53 to i64
  %55 = getelementptr inbounds [10000 x i32], [10000 x i32]* @num, i64 0, i64 %54
  %56 = load i32, i32* %55, align 4
  %57 = add nsw i32 %56, 1
  store i32 %57, i32* %55, align 4
  br label %58

58:                                               ; preds = %52, %49, %43
  br label %59

59:                                               ; preds = %58
  %60 = load i32, i32* %2, align 4
  %61 = add nsw i32 %60, 1
  store i32 %61, i32* %2, align 4
  br label %8

62:                                               ; preds = %8
  store i32 0, i32* %6, align 4
  store i32 9999, i32* %2, align 4
  br label %63

63:                                               ; preds = %90, %62
  %64 = load i32, i32* %2, align 4
  %65 = icmp sge i32 %64, 0
  br i1 %65, label %66, label %93

66:                                               ; preds = %63
  %67 = load i32, i32* %2, align 4
  %68 = sext i32 %67 to i64
  %69 = getelementptr inbounds [10000 x i32], [10000 x i32]* @num, i64 0, i64 %68
  %70 = load i32, i32* %69, align 4
  %71 = icmp sgt i32 %70, 0
  br i1 %71, label %72, label %76

72:                                               ; preds = %66
  %73 = load i32, i32* %3, align 4
  %74 = icmp eq i32 %73, 0
  br i1 %74, label %75, label %76

75:                                               ; preds = %72
  store i32 1, i32* %3, align 4
  br label %89

76:                                               ; preds = %72, %66
  %77 = load i32, i32* %2, align 4
  %78 = sext i32 %77 to i64
  %79 = getelementptr inbounds [10000 x i32], [10000 x i32]* @num, i64 0, i64 %78
  %80 = load i32, i32* %79, align 4
  %81 = icmp sgt i32 %80, 0
  br i1 %81, label %82, label %88

82:                                               ; preds = %76
  %83 = load i32, i32* %3, align 4
  %84 = icmp eq i32 %83, 1
  br i1 %84, label %85, label %88

85:                                               ; preds = %82
  %86 = load i32, i32* %2, align 4
  %87 = call i32 (i8*, ...) @printf(i8* getelementptr inbounds ([3 x i8], [3 x i8]* @.str.1, i64 0, i64 0), i32 %86)
  store i32 1, i32* %6, align 4
  br label %93

88:                                               ; preds = %82, %76
  br label %89

89:                                               ; preds = %88, %75
  br label %90

90:                                               ; preds = %89
  %91 = load i32, i32* %2, align 4
  %92 = add nsw i32 %91, -1
  store i32 %92, i32* %2, align 4
  br label %63

93:                                               ; preds = %85, %63
  %94 = load i32, i32* %6, align 4
  %95 = icmp eq i32 %94, 0
  br i1 %95, label %96, label %98

96:                                               ; preds = %93
  %97 = call i32 (i8*, ...) @printf(i8* getelementptr inbounds ([3 x i8], [3 x i8]* @.str.2, i64 0, i64 0))
  br label %98

98:                                               ; preds = %96, %93
  ret i32 0
}

declare dso_local i32 @__isoc99_scanf(i8*, ...) #1

; Function Attrs: nounwind readonly
declare dso_local i64 @strlen(i8*) #2

declare dso_local i32 @printf(i8*, ...) #1


!llvm.module.flags = !{!0}
!llvm.ident = !{!1}

!0 = !{i32 1, !"wchar_size", i32 4}
!1 = !{!"clang version 10.0.0-4ubuntu1 "}
